target datalayout = "e-m:e-p270:32:32-p271:32:32-p272:64:64-i64:64-i128:128-f80:128-n8:16:32:64-S128"
target triple = "x86_64-pc-linux-gnu"

%struct.FT_Service_PfrMetricsRec_ = type { ptr, ptr, ptr }
%struct.FT_FaceRec_ = type { i64, i64, i64, i64, i64, ptr, ptr, i32, ptr, i32, ptr, %struct.FT_Generic_, %struct.FT_BBox_, i16, i16, i16, i16, i16, i16, i16, i16, ptr, ptr, ptr, ptr, ptr, ptr, %struct.FT_ListRec_, %struct.FT_Generic_, ptr, ptr }
%struct.FT_BBox_ = type { i64, i64, i64, i64 }
%struct.FT_ListRec_ = type { ptr, ptr }
%struct.FT_Generic_ = type { ptr, ptr }
%struct.FT_Face_InternalRec_ = type { %struct.FT_Matrix_, %struct.FT_Vector_, i32, %struct.FT_ServiceCacheRec_, ptr, i8, i32, i32 }
%struct.FT_Matrix_ = type { i64, i64, i64, i64 }
%struct.FT_Vector_ = type { i64, i64 }
%struct.FT_ServiceCacheRec_ = type { ptr, ptr, ptr, ptr, ptr, ptr }
%struct.FT_ModuleRec_ = type { ptr, ptr, ptr }
%struct.FT_Module_Class_ = type { i64, i64, ptr, i64, i64, ptr, ptr, ptr, ptr }

@.str = private unnamed_addr constant [12 x i8] c"pfr-metrics\00", align 1

; Function Attrs: nounwind uwtable
define internal ptr @ft_pfr_check(ptr noundef %0) #0 {
  %2 = alloca ptr, align 8
  %3 = alloca ptr, align 8
  %4 = alloca ptr, align 8
  %5 = alloca ptr, align 8
  %6 = alloca ptr, align 8
  store ptr %0, ptr %2, align 8, !tbaa !3
  call void @llvm.lifetime.start.p0(i64 8, ptr %3) #3
  store ptr null, ptr %3, align 8, !tbaa !14
  %7 = load ptr, ptr %2, align 8, !tbaa !3
  %8 = icmp ne ptr %7, null
  br i1 %8, label %9, label %63

9:                                                ; preds = %1
  br label %10

10:                                               ; preds = %9
  call void @llvm.lifetime.start.p0(i64 8, ptr %4) #3
  %11 = load ptr, ptr %2, align 8, !tbaa !3
  %12 = getelementptr inbounds nuw %struct.FT_FaceRec_, ptr %11, i32 0, i32 30
  %13 = load ptr, ptr %12, align 8, !tbaa !43
  %14 = getelementptr inbounds nuw %struct.FT_Face_InternalRec_, ptr %13, i32 0, i32 3
  %15 = getelementptr inbounds nuw %struct.FT_ServiceCacheRec_, ptr %14, i32 0, i32 4
  %16 = load ptr, ptr %15, align 8, !tbaa !44
  store ptr %16, ptr %4, align 8, !tbaa !50
  %17 = load ptr, ptr %4, align 8, !tbaa !50
  %18 = icmp eq ptr %17, inttoptr (i64 -2 to ptr)
  br i1 %18, label %19, label %20

19:                                               ; preds = %10
  store ptr null, ptr %4, align 8, !tbaa !50
  br label %59

20:                                               ; preds = %10
  %21 = load ptr, ptr %4, align 8, !tbaa !50
  %22 = icmp eq ptr %21, null
  br i1 %22, label %23, label %58

23:                                               ; preds = %20
  br label %24

24:                                               ; preds = %23
  call void @llvm.lifetime.start.p0(i64 8, ptr %5) #3
  %25 = load ptr, ptr %2, align 8, !tbaa !3
  %26 = getelementptr inbounds nuw %struct.FT_FaceRec_, ptr %25, i32 0, i32 24
  %27 = load ptr, ptr %26, align 8, !tbaa !51
  store ptr %27, ptr %5, align 8, !tbaa !52
  call void @llvm.lifetime.start.p0(i64 8, ptr %6) #3
  store ptr null, ptr %6, align 8, !tbaa !50
  %28 = load ptr, ptr %5, align 8, !tbaa !52
  %29 = getelementptr inbounds nuw %struct.FT_ModuleRec_, ptr %28, i32 0, i32 0
  %30 = load ptr, ptr %29, align 8, !tbaa !54
  %31 = getelementptr inbounds nuw %struct.FT_Module_Class_, ptr %30, i32 0, i32 8
  %32 = load ptr, ptr %31, align 8, !tbaa !58
  %33 = icmp ne ptr %32, null
  br i1 %33, label %34, label %42

34:                                               ; preds = %24
  %35 = load ptr, ptr %5, align 8, !tbaa !52
  %36 = getelementptr inbounds nuw %struct.FT_ModuleRec_, ptr %35, i32 0, i32 0
  %37 = load ptr, ptr %36, align 8, !tbaa !54
  %38 = getelementptr inbounds nuw %struct.FT_Module_Class_, ptr %37, i32 0, i32 8
  %39 = load ptr, ptr %38, align 8, !tbaa !58
  %40 = load ptr, ptr %5, align 8, !tbaa !52
  %41 = call ptr %39(ptr noundef %40, ptr noundef @.str)
  store ptr %41, ptr %6, align 8, !tbaa !50
  br label %42

42:                                               ; preds = %34, %24
  %43 = load ptr, ptr %6, align 8, !tbaa !50
  store ptr %43, ptr %4, align 8, !tbaa !50
  call void @llvm.lifetime.end.p0(i64 8, ptr %6) #3
  call void @llvm.lifetime.end.p0(i64 8, ptr %5) #3
  br label %44

44:                                               ; preds = %42
  br label %45

45:                                               ; preds = %44
  %46 = load ptr, ptr %4, align 8, !tbaa !50
  %47 = icmp ne ptr %46, null
  br i1 %47, label %48, label %50

48:                                               ; preds = %45
  %49 = load ptr, ptr %4, align 8, !tbaa !50
  br label %51

50:                                               ; preds = %45
  br label %51

51:                                               ; preds = %50, %48
  %52 = phi ptr [ %49, %48 ], [ inttoptr (i64 -2 to ptr), %50 ]
  %53 = load ptr, ptr %2, align 8, !tbaa !3
  %54 = getelementptr inbounds nuw %struct.FT_FaceRec_, ptr %53, i32 0, i32 30
  %55 = load ptr, ptr %54, align 8, !tbaa !43
  %56 = getelementptr inbounds nuw %struct.FT_Face_InternalRec_, ptr %55, i32 0, i32 3
  %57 = getelementptr inbounds nuw %struct.FT_ServiceCacheRec_, ptr %56, i32 0, i32 4
  store ptr %52, ptr %57, align 8, !tbaa !44
  br label %58

58:                                               ; preds = %51, %20
  br label %59

59:                                               ; preds = %58, %19
  %60 = load ptr, ptr %4, align 8, !tbaa !50
  store ptr %60, ptr %3, align 8, !tbaa !14
  call void @llvm.lifetime.end.p0(i64 8, ptr %4) #3
  br label %61

61:                                               ; preds = %59
  br label %62

62:                                               ; preds = %61
  br label %63

63:                                               ; preds = %62, %1
  %64 = load ptr, ptr %3, align 8, !tbaa !14
  call void @llvm.lifetime.end.p0(i64 8, ptr %3) #3
  ret ptr %64
}

; Function Attrs: nounwind uwtable
define i32 @FT_Get_PFR_Advance(ptr noundef %0, i32 noundef %1, ptr noundef %2) #0 {
  %4 = alloca i32, align 4
  %5 = alloca ptr, align 8
  %6 = alloca i32, align 4
  %7 = alloca ptr, align 8
  %8 = alloca i32, align 4
  %9 = alloca ptr, align 8
  %10 = alloca i32, align 4
  store ptr %0, ptr %5, align 8, !tbaa !3
  store i32 %1, ptr %6, align 4, !tbaa !12
  store ptr %2, ptr %7, align 8, !tbaa !10
  call void @llvm.lifetime.start.p0(i64 4, ptr %8) #3
  call void @llvm.lifetime.start.p0(i64 8, ptr %9) #3
  %11 = load ptr, ptr %5, align 8, !tbaa !3
  %12 = icmp ne ptr %11, null
  br i1 %12, label %14, label %13

13:                                               ; preds = %3
  store i32 35, ptr %4, align 4
  store i32 1, ptr %10, align 4
  br label %34

14:                                               ; preds = %3
  %15 = load ptr, ptr %7, align 8, !tbaa !10
  %16 = icmp ne ptr %15, null
  br i1 %16, label %18, label %17

17:                                               ; preds = %14
  store i32 6, ptr %4, align 4
  store i32 1, ptr %10, align 4
  br label %34

18:                                               ; preds = %14
  %19 = load ptr, ptr %5, align 8, !tbaa !3
  %20 = call ptr @ft_pfr_check(ptr noundef %19)
  store ptr %20, ptr %9, align 8, !tbaa !14
  %21 = load ptr, ptr %9, align 8, !tbaa !14
  %22 = icmp ne ptr %21, null
  br i1 %22, label %23, label %31

23:                                               ; preds = %18
  %24 = load ptr, ptr %9, align 8, !tbaa !14
  %25 = getelementptr inbounds nuw %struct.FT_Service_PfrMetricsRec_, ptr %24, i32 0, i32 2
  %26 = load ptr, ptr %25, align 8, !tbaa !63
  %27 = load ptr, ptr %5, align 8, !tbaa !3
  %28 = load i32, ptr %6, align 4, !tbaa !12
  %29 = load ptr, ptr %7, align 8, !tbaa !10
  %30 = call i32 %26(ptr noundef %27, i32 noundef %28, ptr noundef %29)
  store i32 %30, ptr %8, align 4, !tbaa !12
  br label %32

31:                                               ; preds = %18
  store i32 6, ptr %8, align 4, !tbaa !12
  br label %32

32:                                               ; preds = %31, %23
  %33 = load i32, ptr %8, align 4, !tbaa !12
  store i32 %33, ptr %4, align 4
  store i32 1, ptr %10, align 4
  br label %34

34:                                               ; preds = %32, %17, %13
  call void @llvm.lifetime.end.p0(i64 8, ptr %9) #3
  call void @llvm.lifetime.end.p0(i64 4, ptr %8) #3
  %35 = load i32, ptr %4, align 4
  ret i32 %35
}