; Function Attrs: nounwind uwtable
define i32 @FT_Get_PFR_Advance(ptr noundef %0, i32 noundef %1, ptr noundef %2) local_unnamed_addr #0 {
  %.not = icmp eq ptr %0, null
  br i1 %.not, label %ft_pfr_check.exit.thread, label %4

4:                                                ; preds = %3
  %.not13 = icmp eq ptr %2, null
  br i1 %.not13, label %ft_pfr_check.exit.thread, label %5

5:                                                ; preds = %4
  %6 = getelementptr inbounds nuw i8, ptr %0, i64 240
  %7 = load ptr, ptr %6, align 8, !tbaa !3
  %8 = getelementptr inbounds nuw i8, ptr %7, i64 88
  %9 = load ptr, ptr %8, align 8, !tbaa !25
  %magicptr.i = ptrtoint ptr %9 to i64
  switch i64 %magicptr.i, label %ft_pfr_check.exit [
    i64 -2, label %ft_pfr_check.exit.thread
    i64 0, label %10
  ]

10:                                               ; preds = %5
  %11 = getelementptr inbounds nuw i8, ptr %0, i64 176
  %12 = load ptr, ptr %11, align 8, !tbaa !31
  %13 = load ptr, ptr %12, align 8, !tbaa !32
  %14 = getelementptr inbounds nuw i8, ptr %13, i64 64
  %15 = load ptr, ptr %14, align 8, !tbaa !36
  %.not.i = icmp eq ptr %15, null
  br i1 %.not.i, label %18, label %16

16:                                               ; preds = %10
  %17 = tail call ptr %15(ptr noundef nonnull %12, ptr noundef nonnull @.str) #2
  %.pre.i = load ptr, ptr %6, align 8, !tbaa !3
  br label %18

18:                                               ; preds = %16, %10
  %19 = phi ptr [ %.pre.i, %16 ], [ %7, %10 ]
  %.0.i = phi ptr [ %17, %16 ], [ null, %10 ]
  %.not19.i = icmp eq ptr %.0.i, null
  %20 = select i1 %.not19.i, ptr inttoptr (i64 -2 to ptr), ptr %.0.i
  %21 = getelementptr inbounds nuw i8, ptr %19, i64 88
  store ptr %20, ptr %21, align 8, !tbaa !25
  br label %ft_pfr_check.exit

ft_pfr_check.exit:                                ; preds = %5, %18
  %.015.i = phi ptr [ %.0.i, %18 ], [ %9, %5 ]
  %.not14 = icmp eq ptr %.015.i, null
  br i1 %.not14, label %ft_pfr_check.exit.thread, label %22

22:                                               ; preds = %ft_pfr_check.exit
  %23 = getelementptr inbounds nuw i8, ptr %.015.i, i64 16
  %24 = load ptr, ptr %23, align 8, !tbaa !51
  %25 = tail call i32 %24(ptr noundef nonnull %0, i32 noundef %1, ptr noundef nonnull %2) #2
  br label %ft_pfr_check.exit.thread

ft_pfr_check.exit.thread:                         ; preds = %5, %22, %ft_pfr_check.exit, %4, %3
  %.0 = phi i32 [ 35, %3 ], [ 6, %4 ], [ %25, %22 ], [ 6, %ft_pfr_check.exit ], [ 6, %5 ]
  ret i32 %.0
}